(dp1
S'output'
p2
S"<type 'exceptions.ValueError'> unsupported pickle protocol: 3"
p3
sS'layer'
p4
S'/Users/maulanakormi/Downloads/web2py/applications/Bibi13/models/db.py'
p5
sS'code'
p6
S'<code object <module> at 0x117684c30, file "/Users/maulanakormi/Downloads/web2py/applications/Bibi13/models/db.py", line 7>'
p7
sS'snapshot'
p8
(dp9
S'exception'
p10
(dp11
S'__getslice__'
p12
S"<method-wrapper '__getslice__' of exceptions.ValueError object>"
p13
sS'__str__'
p14
S"<method-wrapper '__str__' of exceptions.ValueError object>"
p15
sS'__reduce__'
p16
S'<built-in method __reduce__ of exceptions.ValueError object>'
p17
sS'__dict__'
p18
S'{}'
p19
sS'message'
p20
S"'unsupported pickle protocol: 3'"
p21
sS'__sizeof__'
p22
S'<built-in method __sizeof__ of exceptions.ValueError object>'
p23
sS'__init__'
p24
S"<method-wrapper '__init__' of exceptions.ValueError object>"
p25
sS'__setattr__'
p26
S"<method-wrapper '__setattr__' of exceptions.ValueError object>"
p27
sS'__reduce_ex__'
p28
S'<built-in method __reduce_ex__ of exceptions.ValueError object>'
p29
sS'__new__'
p30
S'<built-in method __new__ of type object>'
p31
sS'__format__'
p32
S'<built-in method __format__ of exceptions.ValueError object>'
p33
sS'__class__'
p34
S"<type 'exceptions.ValueError'>"
p35
sS'__doc__'
p36
S"'Inappropriate argument value (of correct type).'"
p37
sS'__getitem__'
p38
S"<method-wrapper '__getitem__' of exceptions.ValueError object>"
p39
sS'__setstate__'
p40
S'<built-in method __setstate__ of exceptions.ValueError object>'
p41
sS'__getattribute__'
p42
S"<method-wrapper '__getattribute__' of exceptions.ValueError object>"
p43
sS'args'
p44
S"('unsupported pickle protocol: 3',)"
p45
sS'__subclasshook__'
p46
S'<built-in method __subclasshook__ of type object>'
p47
sS'__unicode__'
p48
S'<built-in method __unicode__ of exceptions.ValueError object>'
p49
sS'__delattr__'
p50
S"<method-wrapper '__delattr__' of exceptions.ValueError object>"
p51
sS'__repr__'
p52
S"<method-wrapper '__repr__' of exceptions.ValueError object>"
p53
sS'__hash__'
p54
S"<method-wrapper '__hash__' of exceptions.ValueError object>"
p55
ssS'evalue'
p56
S'unsupported pickle protocol: 3'
p57
sS'request'
p58
cgluon.html
XML_unpickle
p59
(S's\tJ\x00\x00<div><table><tr><td style="font-weight:bold;vertical-align:top;">ajax</td><td style="vertical-align:top;">:</td><td><div>False</div></td></tr><tr><td style="font-weight:bold;vertical-align:top;">application</td><td style="vertical-align:top;">:</td><td><div>Bibi13</div></td></tr><tr><td style="font-weight:bold;vertical-align:top;">args</td><td style="vertical-align:top;">:</td><td><div><table></table></div></td></tr><tr><td style="font-weight:bold;vertical-align:top;">cid</td><td style="vertical-align:top;">:</td><td><div>None</div></td></tr><tr><td style="font-weight:bold;vertical-align:top;">client</td><td style="vertical-align:top;">:</td><td><div>127.0.0.1</div></td></tr><tr><td style="font-weight:bold;vertical-align:top;">controller</td><td style="vertical-align:top;">:</td><td><div>default</div></td></tr><tr><td style="font-weight:bold;vertical-align:top;">cookies</td><td style="vertical-align:top;">:</td><td><div><table></table></div></td></tr><tr><td style="font-weight:bold;vertical-align:top;">env</td><td style="vertical-align:top;">:</td><td><div><table><tr><td style="font-weight:bold;vertical-align:top;">HTTP_ACCEPT</td><td style="vertical-align:top;">:</td><td><div>text/html,application/xhtml+xml,application/xml;q=0.9,*/*;q=0.8</div></td></tr><tr><td style="font-weight:bold;vertical-align:top;">HTTP_ACCEPT_ENCODING</td><td style="vertical-align:top;">:</td><td><div>gzip, deflate</div></td></tr><tr><td style="font-weight:bold;vertical-align:top;">HTTP_ACCEPT_LANGUAGE</td><td style="vertical-align:top;">:</td><td><div>de-ch</div></td></tr><tr><td style="font-weight:bold;vertical-align:top;">HTTP_CONNECTION</td><td style="vertical-align:top;">:</td><td><div>keep-alive</div></td></tr><tr><td style="font-weight:bold;vertical-align:top;">HTTP_HOST</td><td style="vertical-align:top;">:</td><td><div>127.0.0.1:8000</div></td></tr><tr><td style="font-weight:bold;vertical-align:top;">HTTP_UPGRADE_INSECURE_REQUESTS</td><td style="vertical-align:top;">:</td><td><div>1</div></td></tr><tr><td style="font-weight:bold;vertical-align:top;">HTTP_USER_AGENT</td><td style="vertical-align:top;">:</td><td><div>Mozilla/5.0 (Macintosh; Intel Mac OS X 10_14_6) AppleWebKit/605.1.15 (KHTML, like Gecko) Version/13.0.5 Safari/605.1.15</div></td></tr><tr><td style="font-weight:bold;vertical-align:top;">PATH_INFO</td><td style="vertical-align:top;">:</td><td><div>/Bibi13</div></td></tr><tr><td style="font-weight:bold;vertical-align:top;">QUERY_STRING</td><td style="vertical-align:top;">:</td><td><div></div></td></tr><tr><td style="font-weight:bold;vertical-align:top;">REMOTE_ADDR</td><td style="vertical-align:top;">:</td><td><div>127.0.0.1</div></td></tr><tr><td style="font-weight:bold;vertical-align:top;">REMOTE_PORT</td><td style="vertical-align:top;">:</td><td><div>50621</div></td></tr><tr><td style="font-weight:bold;vertical-align:top;">REQUEST_METHOD</td><td style="vertical-align:top;">:</td><td><div>GET</div></td></tr><tr><td style="font-weight:bold;vertical-align:top;">SCRIPT_NAME</td><td style="vertical-align:top;">:</td><td><div></div></td></tr><tr><td style="font-weight:bold;vertical-align:top;">SERVER_NAME</td><td style="vertical-align:top;">:</td><td><div>Maulanas-MacBook-Pro.local</div></td></tr><tr><td style="font-weight:bold;vertical-align:top;">SERVER_PORT</td><td style="vertical-align:top;">:</td><td><div>8000</div></td></tr><tr><td style="font-weight:bold;vertical-align:top;">SERVER_PROTOCOL</td><td style="vertical-align:top;">:</td><td><div>HTTP/1.1</div></td></tr><tr><td style="font-weight:bold;vertical-align:top;">SERVER_SOFTWARE</td><td style="vertical-align:top;">:</td><td><div>Rocket 1.2.6</div></td></tr><tr><td style="font-weight:bold;vertical-align:top;">app_folders</td><td style="vertical-align:top;">:</td><td><div>set([&#x27;/Users/maulanakormi/Downloads/web2py/applications/Bibi13&#x27;])</div></td></tr><tr><td style="font-weight:bold;vertical-align:top;">applications_parent</td><td style="vertical-align:top;">:</td><td><div>/Users/maulanakormi/Downloads/web2py</div></td></tr><tr><td style="font-weight:bold;vertical-align:top;">cmd_args</td><td style="vertical-align:top;">:</td><td><div><table></table></div></td></tr><tr><td style="font-weight:bold;vertical-align:top;">cmd_options</td><td style="vertical-align:top;">:</td><td><div>&lt;Values at 0x110bfae60: {&#x27;verbose&#x27;: False, &#x27;ip&#x27;: &#x27;127.0.0.1&#x27;, &#x27;debuglevel&#x27;: 30, &#x27;with_scheduler&#x27;: False, &#x27;shutdown_timeout&#x27;: 5, &#x27;taskbar&#x27;: False, &#x27;with_coverage&#x27;: False, &#x27;pid_filename&#x27;: &#x27;httpserver.pid&#x27;, &#x27;maxthreads&#x27;: None, &#x27;softcron&#x27;: False, &#x27;server_name&#x27;: &#x27;Maulanas-MacBook-Pro.local&#x27;, &#x27;bpython&#x27;: False, &#x27;nogui&#x27;: False, &#x27;port&#x27;: 8000, &#x27;print_errors&#x27;: False, &#x27;extcron&#x27;: False, &#x27;runcron&#x27;: False, &#x27;run_system_tests&#x27;: False, &#x27;test&#x27;: None, &#x27;folder&#x27;: &#x27;/Users/maulanakormi/Downloads/web2py&#x27;, &#x27;config&#x27;: &#x27;&#x27;, &#x27;minthreads&#x27;: None, &#x27;shell&#x27;: None, &#x27;run&#x27;: &#x27;&#x27;, &#x27;log_filename&#x27;: &#x27;httpserver.log&#x27;, &#x27;profiler_dir&#x27;: None, &#x27;args&#x27;: [], &#x27;socket_timeout&#x27;: 5, &#x27;ssl_ca_certificate&#x27;: None, &#x27;scheduler&#x27;: None, &#x27;interfaces&#x27;: None, &#x27;ssl_private_key&#x27;: &#x27;&#x27;, &#x27;gae&#x27;: None, &#x27;password&#x27;: &#x27;******&#x27;, &#x27;request_queue_size&#x27;: 5, &#x27;ssl_certificate&#x27;: &#x27;&#x27;, &#x27;cronjob&#x27;: False, &#x27;numthreads&#x27;: None, &#x27;quiet&#x27;: False, &#x27;import_models&#x27;: False, &#x27;timeout&#x27;: 10, &#x27;plain&#x27;: False, &#x27;nobanner&#x27;: False}&gt;</div></td></tr><tr><td style="font-weight:bold;vertical-align:top;">db_sessions</td><td style="vertical-align:top;">:</td><td><div>set([])</div></td></tr><tr><td style="font-weight:bold;vertical-align:top;">debugging</td><td style="vertical-align:top;">:</td><td><div>False</div></td></tr><tr><td style="font-weight:bold;vertical-align:top;">gluon_parent</td><td style="vertical-align:top;">:</td><td><div>/Users/maulanakormi/Downloads/web2py</div></td></tr><tr><td style="font-weight:bold;vertical-align:top;">http_accept</td><td style="vertical-align:top;">:</td><td><div>text/html,application/xhtml+xml,application/xml;q=0.9,*/*;q=0.8</div></td></tr><tr><td style="font-weight:bold;vertical-align:top;">http_accept_encoding</td><td style="vertical-align:top;">:</td><td><div>gzip, deflate</div></td></tr><tr><td style="font-weight:bold;vertical-align:top;">http_accept_language</td><td style="vertical-align:top;">:</td><td><div>de-ch</div></td></tr><tr><td style="font-weight:bold;vertical-align:top;">http_connection</td><td style="vertical-align:top;">:</td><td><div>keep-alive</div></td></tr><tr><td style="font-weight:bold;vertical-align:top;">http_host</td><td style="vertical-align:top;">:</td><td><div>127.0.0.1:8000</div></td></tr><tr><td style="font-weight:bold;vertical-align:top;">http_upgrade_insecure_requests</td><td style="vertical-align:top;">:</td><td><div>1</div></td></tr><tr><td style="font-weight:bold;vertical-align:top;">http_user_agent</td><td style="vertical-align:top;">:</td><td><div>Mozilla/5.0 (Macintosh; Intel Mac OS X 10_14_6) AppleWebKit/605.1.15 (KHTML, like Gecko) Version/13.0.5 Safari/605.1.15</div></td></tr><tr><td style="font-weight:bold;vertical-align:top;">is_jython</td><td style="vertical-align:top;">:</td><td><div>False</div></td></tr><tr><td style="font-weight:bold;vertical-align:top;">is_py2</td><td style="vertical-align:top;">:</td><td><div>True</div></td></tr><tr><td style="font-weight:bold;vertical-align:top;">is_pypy</td><td style="vertical-align:top;">:</td><td><div>False</div></td></tr><tr><td style="font-weight:bold;vertical-align:top;">is_source</td><td style="vertical-align:top;">:</td><td><div>True</div></td></tr><tr><td style="font-weight:bold;vertical-align:top;">local_hosts</td><td style="vertical-align:top;">:</td><td><div><table><tr><td><div>Maulanas-MacBook-Pro.local</div></td></tr><tr><td><div>::1</div></td></tr><tr><td><div>1.0.0.127.in-addr.arpa</div></td></tr><tr><td><div>::ffff:127.0.0.1</div></td></tr><tr><td><div>127.0.0.1</div></td></tr></table></div></td></tr><tr><td style="font-weight:bold;vertical-align:top;">path_info</td><td style="vertical-align:top;">:</td><td><div>/Bibi13</div></td></tr><tr><td style="font-weight:bold;vertical-align:top;">query_string</td><td style="vertical-align:top;">:</td><td><div></div></td></tr><tr><td style="font-weight:bold;vertical-align:top;">remote_addr</td><td style="vertical-align:top;">:</td><td><div>127.0.0.1</div></td></tr><tr><td style="font-weight:bold;vertical-align:top;">remote_port</td><td style="vertical-align:top;">:</td><td><div>50621</div></td></tr><tr><td style="font-weight:bold;vertical-align:top;">request_method</td><td style="vertical-align:top;">:</td><td><div>GET</div></td></tr><tr><td style="font-weight:bold;vertical-align:top;">request_uri</td><td style="vertical-align:top;">:</td><td><div>/Bibi13</div></td></tr><tr><td style="font-weight:bold;vertical-align:top;">script_name</td><td style="vertical-align:top;">:</td><td><div></div></td></tr><tr><td style="font-weight:bold;vertical-align:top;">server_name</td><td style="vertical-align:top;">:</td><td><div>Maulanas-MacBook-Pro.local</div></td></tr><tr><td style="font-weight:bold;vertical-align:top;">server_port</td><td style="vertical-align:top;">:</td><td><div>8000</div></td></tr><tr><td style="font-weight:bold;vertical-align:top;">server_protocol</td><td style="vertical-align:top;">:</td><td><div>HTTP/1.1</div></td></tr><tr><td style="font-weight:bold;vertical-align:top;">server_software</td><td style="vertical-align:top;">:</td><td><div>Rocket 1.2.6</div></td></tr><tr><td style="font-weight:bold;vertical-align:top;">web2py_path</td><td style="vertical-align:top;">:</td><td><div>/Users/maulanakormi/Downloads/web2py</div></td></tr><tr><td style="font-weight:bold;vertical-align:top;">web2py_version</td><td style="vertical-align:top;">:</td><td><div>2.18.5-stable+timestamp.2019.04.08.04.22.03</div></td></tr><tr><td style="font-weight:bold;vertical-align:top;">wsgi.errors</td><td style="vertical-align:top;">:</td><td><div>&lt;open file &#x27;&lt;stderr&gt;&#x27;, mode &#x27;w&#x27; at 0x10fd821e0&gt;</div></td></tr><tr><td style="font-weight:bold;vertical-align:top;">wsgi.file_wrapper</td><td style="vertical-align:top;">:</td><td><div>&lt;class wsgiref.util.FileWrapper at 0x110b8d7a0&gt;</div></td></tr><tr><td style="font-weight:bold;vertical-align:top;">wsgi.input</td><td style="vertical-align:top;">:</td><td><div>&lt;socket._fileobject object at 0x110bead50&gt;</div></td></tr><tr><td style="font-weight:bold;vertical-align:top;">wsgi.multiprocess</td><td style="vertical-align:top;">:</td><td><div>False</div></td></tr><tr><td style="font-weight:bold;vertical-align:top;">wsgi.multithread</td><td style="vertical-align:top;">:</td><td><div>True</div></td></tr><tr><td style="font-weight:bold;vertical-align:top;">wsgi.run_once</td><td style="vertical-align:top;">:</td><td><div>False</div></td></tr><tr><td style="font-weight:bold;vertical-align:top;">wsgi.url_scheme</td><td style="vertical-align:top;">:</td><td><div>http</div></td></tr><tr><td style="font-weight:bold;vertical-align:top;">wsgi.version</td><td style="vertical-align:top;">:</td><td><div><table><tr><td><div>1</div></td></tr><tr><td><div>0</div></td></tr></table></div></td></tr><tr><td style="font-weight:bold;vertical-align:top;">wsgi_errors</td><td style="vertical-align:top;">:</td><td><div>&lt;open file &#x27;&lt;stderr&gt;&#x27;, mode &#x27;w&#x27; at 0x10fd821e0&gt;</div></td></tr><tr><td style="font-weight:bold;vertical-align:top;">wsgi_file_wrapper</td><td style="vertical-align:top;">:</td><td><div>&lt;class wsgiref.util.FileWrapper at 0x110b8d7a0&gt;</div></td></tr><tr><td style="font-weight:bold;vertical-align:top;">wsgi_input</td><td style="vertical-align:top;">:</td><td><div>&lt;socket._fileobject object at 0x110bead50&gt;</div></td></tr><tr><td style="font-weight:bold;vertical-align:top;">wsgi_multiprocess</td><td style="vertical-align:top;">:</td><td><div>False</div></td></tr><tr><td style="font-weight:bold;vertical-align:top;">wsgi_multithread</td><td style="vertical-align:top;">:</td><td><div>True</div></td></tr><tr><td style="font-weight:bold;vertical-align:top;">wsgi_run_once</td><td style="vertical-align:top;">:</td><td><div>False</div></td></tr><tr><td style="font-weight:bold;vertical-align:top;">wsgi_url_scheme</td><td style="vertical-align:top;">:</td><td><div>http</div></td></tr><tr><td style="font-weight:bold;vertical-align:top;">wsgi_version</td><td style="vertical-align:top;">:</td><td><div><table><tr><td><div>1</div></td></tr><tr><td><div>0</div></td></tr></table></div></td></tr></table></div></td></tr><tr><td style="font-weight:bold;vertical-align:top;">extension</td><td style="vertical-align:top;">:</td><td><div>html</div></td></tr><tr><td style="font-weight:bold;vertical-align:top;">folder</td><td style="vertical-align:top;">:</td><td><div>/Users/maulanakormi/Downloads/web2py/applications/Bibi13</div></td></tr><tr><td style="font-weight:bold;vertical-align:top;">function</td><td style="vertical-align:top;">:</td><td><div>index</div></td></tr><tr><td style="font-weight:bold;vertical-align:top;">global_settings</td><td style="vertical-align:top;">:</td><td><div><table><tr><td style="font-weight:bold;vertical-align:top;">app_folders</td><td style="vertical-align:top;">:</td><td><div>set([&#x27;/Users/maulanakormi/Downloads/web2py/applications/Bibi13&#x27;])</div></td></tr><tr><td style="font-weight:bold;vertical-align:top;">applications_parent</td><td style="vertical-align:top;">:</td><td><div>/Users/maulanakormi/Downloads/web2py</div></td></tr><tr><td style="font-weight:bold;vertical-align:top;">cmd_args</td><td style="vertical-align:top;">:</td><td><div><table></table></div></td></tr><tr><td style="font-weight:bold;vertical-align:top;">cmd_options</td><td style="vertical-align:top;">:</td><td><div>&lt;Values at 0x110bfae60: {&#x27;verbose&#x27;: False, &#x27;ip&#x27;: &#x27;127.0.0.1&#x27;, &#x27;debuglevel&#x27;: 30, &#x27;with_scheduler&#x27;: False, &#x27;shutdown_timeout&#x27;: 5, &#x27;taskbar&#x27;: False, &#x27;with_coverage&#x27;: False, &#x27;pid_filename&#x27;: &#x27;httpserver.pid&#x27;, &#x27;maxthreads&#x27;: None, &#x27;softcron&#x27;: False, &#x27;server_name&#x27;: &#x27;Maulanas-MacBook-Pro.local&#x27;, &#x27;bpython&#x27;: False, &#x27;nogui&#x27;: False, &#x27;port&#x27;: 8000, &#x27;print_errors&#x27;: False, &#x27;extcron&#x27;: False, &#x27;runcron&#x27;: False, &#x27;run_system_tests&#x27;: False, &#x27;test&#x27;: None, &#x27;folder&#x27;: &#x27;/Users/maulanakormi/Downloads/web2py&#x27;, &#x27;config&#x27;: &#x27;&#x27;, &#x27;minthreads&#x27;: None, &#x27;shell&#x27;: None, &#x27;run&#x27;: &#x27;&#x27;, &#x27;log_filename&#x27;: &#x27;httpserver.log&#x27;, &#x27;profiler_dir&#x27;: None, &#x27;args&#x27;: [], &#x27;socket_timeout&#x27;: 5, &#x27;ssl_ca_certificate&#x27;: None, &#x27;scheduler&#x27;: None, &#x27;interfaces&#x27;: None, &#x27;ssl_private_key&#x27;: &#x27;&#x27;, &#x27;gae&#x27;: None, &#x27;password&#x27;: &#x27;******&#x27;, &#x27;request_queue_size&#x27;: 5, &#x27;ssl_certificate&#x27;: &#x27;&#x27;, &#x27;cronjob&#x27;: False, &#x27;numthreads&#x27;: None, &#x27;quiet&#x27;: False, &#x27;import_models&#x27;: False, &#x27;timeout&#x27;: 10, &#x27;plain&#x27;: False, &#x27;nobanner&#x27;: False}&gt;</div></td></tr><tr><td style="font-weight:bold;vertical-align:top;">db_sessions</td><td style="vertical-align:top;">:</td><td><div>set([])</div></td></tr><tr><td style="font-weight:bold;vertical-align:top;">debugging</td><td style="vertical-align:top;">:</td><td><div>False</div></td></tr><tr><td style="font-weight:bold;vertical-align:top;">gluon_parent</td><td style="vertical-align:top;">:</td><td><div>/Users/maulanakormi/Downloads/web2py</div></td></tr><tr><td style="font-weight:bold;vertical-align:top;">is_jython</td><td style="vertical-align:top;">:</td><td><div>False</div></td></tr><tr><td style="font-weight:bold;vertical-align:top;">is_py2</td><td style="vertical-align:top;">:</td><td><div>True</div></td></tr><tr><td style="font-weight:bold;vertical-align:top;">is_pypy</td><td style="vertical-align:top;">:</td><td><div>False</div></td></tr><tr><td style="font-weight:bold;vertical-align:top;">is_source</td><td style="vertical-align:top;">:</td><td><div>True</div></td></tr><tr><td style="font-weight:bold;vertical-align:top;">local_hosts</td><td style="vertical-align:top;">:</td><td><div><table><tr><td><div>Maulanas-MacBook-Pro.local</div></td></tr><tr><td><div>::1</div></td></tr><tr><td><div>1.0.0.127.in-addr.arpa</div></td></tr><tr><td><div>::ffff:127.0.0.1</div></td></tr><tr><td><div>127.0.0.1</div></td></tr></table></div></td></tr><tr><td style="font-weight:bold;vertical-align:top;">web2py_version</td><td style="vertical-align:top;">:</td><td><div>2.18.5-stable+timestamp.2019.04.08.04.22.03</div></td></tr></table></div></td></tr><tr><td style="font-weight:bold;vertical-align:top;">is_https</td><td style="vertical-align:top;">:</td><td><div>False</div></td></tr><tr><td style="font-weight:bold;vertical-align:top;">is_local</td><td style="vertical-align:top;">:</td><td><div>True</div></td></tr><tr><td style="font-weight:bold;vertical-align:top;">is_restful</td><td style="vertical-align:top;">:</td><td><div>False</div></td></tr><tr><td style="font-weight:bold;vertical-align:top;">is_scheduler</td><td style="vertical-align:top;">:</td><td><div>False</div></td></tr><tr><td style="font-weight:bold;vertical-align:top;">is_shell</td><td style="vertical-align:top;">:</td><td><div>False</div></td></tr><tr><td style="font-weight:bold;vertical-align:top;">method</td><td style="vertical-align:top;">:</td><td><div>GET</div></td></tr><tr><td style="font-weight:bold;vertical-align:top;">now</td><td style="vertical-align:top;">:</td><td><div>datetime.datetime(2020, 3, 4, 22, 38, 4, 309168)</div></td></tr><tr><td style="font-weight:bold;vertical-align:top;">raw_args</td><td style="vertical-align:top;">:</td><td><div></div></td></tr><tr><td style="font-weight:bold;vertical-align:top;">raw_extension</td><td style="vertical-align:top;">:</td><td><div>None</div></td></tr><tr><td style="font-weight:bold;vertical-align:top;">url</td><td style="vertical-align:top;">:</td><td><div>/Bibi13</div></td></tr><tr><td style="font-weight:bold;vertical-align:top;">utcnow</td><td style="vertical-align:top;">:</td><td><div>datetime.datetime(2020, 3, 4, 21, 38, 4, 309175)</div></td></tr><tr><td style="font-weight:bold;vertical-align:top;">wsgi</td><td style="vertical-align:top;">:</td><td><div>&lt;gluon.main.LazyWSGI object at 0x117230090&gt;</div></td></tr></table></div>'
tRp60
sS'frames'
p61
(lp62
(dp63
S'file'
p64
S'/Users/maulanakormi/Downloads/web2py/gluon/restricted.py'
p65
sS'dump'
p66
(dp67
S'environment'
p68
S"{'A': <class 'gluon.html.A'>, 'ANY_OF': <class 'pydal.validators.ANY_OF'>, 'ASSIGNJS': <function ASSIGNJS>, 'AppConfig': <function AppConfig>, 'Auth': <class 'gluon.tools.Auth'>, 'B': <class 'gluon.html.B'>, 'BEAUTIFY': <class 'gluon.html.BEAUTIFY'>, 'BODY': <class 'gluon.html.BODY'>, 'BR': <class 'gluon.html.BR'>, 'BUTTON': <class 'gluon.html.BUTTON'>, ...}"
p69
sS'ccode'
p70
S'<code object <module> at 0x117684c30, file "/Use...web2py/applications/Bibi13/models/db.py", line 7>'
p71
ssS'lnum'
p72
I219
sS'lines'
p73
(dp74
I214
S'    if environment is None:'
p75
sI215
S'        environment = {}'
p76
sI216
S"    environment['__file__'] = layer"
p77
sI217
S"    environment['__name__'] = '__restricted__'"
p78
sI218
S'    try:'
p79
sI219
S'        exec(ccode, environment)'
p80
sI220
S'    except HTTP:'
p81
sI221
S'        raise'
p82
sI222
S'    except RestrictedError:'
p83
sI223
S'        # do not encapsulate (obfuscate) the original RestrictedError'
p84
ssS'call'
p85
S'(ccode=<code object <module> at 0x117684c30, file "/Use...web2py/applications/Bibi13/models/db.py", line 7>, environment={\'A\': <class \'gluon.html.A\'>, \'ANY_OF\': <class \'pydal.validators.ANY_OF\'>, \'ASSIGNJS\': <function ASSIGNJS>, \'AppConfig\': <function AppConfig>, \'Auth\': <class \'gluon.tools.Auth\'>, \'B\': <class \'gluon.html.B\'>, \'BEAUTIFY\': <class \'gluon.html.BEAUTIFY\'>, \'BODY\': <class \'gluon.html.BODY\'>, \'BR\': <class \'gluon.html.BR\'>, \'BUTTON\': <class \'gluon.html.BUTTON\'>, ...}, layer=\'/Users/maulanakormi/Downloads/web2py/applications/Bibi13/models/db.py\', scode=<code object <module> at 0x117684c30, file "/Use...web2py/applications/Bibi13/models/db.py", line 7>)'
p86
sS'func'
p87
S'restricted'
p88
sa(dp89
g64
S'/Users/maulanakormi/Downloads/web2py/applications/Bibi13/models/db.py'
p90
sg66
(dp91
S'username'
p92
S'undefined'
p93
sS'builtinFalse'
p94
S'False'
p95
sS'migrate'
p96
g93
sS'builtinTrue'
p97
S'True'
p98
sS'auth'
p99
S'<gluon.tools.Auth object>'
p100
sS'auth.define_tables'
p101
S'<bound method Auth.define_tables of <gluon.tools.Auth object>>'
p102
sS'signature'
p103
g93
ssg72
I94
sg73
(dp104
I96
S''
sI97
S'# -------------------------------------------------------------------------'
p105
sI98
S'# configure email'
p106
sI89
S"auth = Auth(db, host_names=configuration.get('host.names'))"
p107
sI90
S''
sI91
S'# -------------------------------------------------------------------------'
p108
sI92
S'# create all tables needed by auth, maybe add a list of extra fields'
p109
sI93
S'# -------------------------------------------------------------------------'
p110
sI94
S'auth.define_tables(username=True, signature=False,migrate=True)'
p111
sI95
S'auth.define_tables(username=True, signature=False)'
p112
ssg85
S'()'
p113
sg87
S'<module>'
p114
sa(dp115
g64
S'/Users/maulanakormi/Downloads/web2py/gluon/tools.py'
p116
sg66
(dp117
S'username'
p118
g98
sS'migrate'
p119
g98
sS'self'
p120
S'<gluon.tools.Auth object>'
p121
sS'fake_migrate'
p122
g95
sS'global Auth'
p123
S"<class 'gluon.tools.Auth'>"
p124
sS')._table_signature_list'
p125
g93
sS'signature'
p126
g95
sS'builtinsuper'
p127
S"<type 'super'>"
p128
sS').define_tables'
p129
S'<bound method Auth.define_tables of <gluon.tools.Auth object>>'
p130
ssg72
I2092
sg73
(dp131
I2087
S'        if fake_migrate is None:'
p132
sI2088
S'            fake_migrate = db._fake_migrate'
p133
sI2089
S'        settings = self.settings'
p134
sI2090
S'        settings.enable_tokens = enable_tokens'
p135
sI2091
S'        signature_list = \\'
p136
sI2092
S'            super(Auth, self).define_tables(username, signature, migrate, fake_migrate)._table_signature_list'
p137
sI2093
S''
sI2094
S'        now = current.request.now'
p138
sI2095
S"        reference_table_user = 'reference %s' % settings.table_user_name"
p139
sI2096
S'        if settings.cas_domains:'
p140
ssg85
S'(self=<gluon.tools.Auth object>, username=True, signature=False, enable_tokens=False, migrate=True, fake_migrate=False)'
p141
sg87
S'define_tables'
p142
sa(dp143
g64
S'/Users/maulanakormi/Downloads/web2py/gluon/authapi.py'
p144
sg66
(dp145
S'builtinformat'
p146
S'<built-in function format>'
p147
ssg72
I320
sg73
(dp148
I320
S"                        format='%(username)s'))"
p149
sI321
S'            else:'
p150
sI322
S'                db.define_table('
p151
sI323
S'                    settings.table_user_name,'
p152
sI324
S"                    Field('first_name', length=128, default='',"
p153
sI315
S'                    *extra_fields,'
p154
sI316
S'                    **dict('
p155
sI317
S'                        migrate=self._get_migrate(settings.table_user_name,'
p156
sI318
S'                                                  migrate),'
p157
sI319
S'                        fake_migrate=fake_migrate,'
p158
ssg85
S'(self=<gluon.tools.Auth object>, username=True, signature=False, migrate=True, fake_migrate=False)'
p159
sg87
g142
sa(dp160
g64
S'/Users/maulanakormi/Downloads/web2py/gluon/packages/dal/pydal/base.py'
p161
sg66
(dp162
S'fields'
p163
S'(<pydal.objects.Field object>, <pydal.objects.Field object>, <pydal.objects.Field object>, <pydal.objects.Field object>, <pydal.objects.Field object>, <pydal.objects.Field object>, <pydal.objects.Field object>, <pydal.objects.Field object>)'
p164
sS'self'
p165
S'<DAL uri="sqlite://storage.sqlite">'
p166
sS'tablename'
p167
S"'auth_user'"
p168
sS'kwargs'
p169
S"{'fake_migrate': False, 'format': '%(username)s', 'migrate': True}"
p170
sS'table'
p171
g93
sS'self.lazy_define_table'
p172
S'<bound method DAL.lazy_define_table of <DAL uri="sqlite://storage.sqlite">>'
p173
ssg72
I592
sg73
(dp174
I587
S'        if self._lazy_tables:'
p175
sI588
S'            if tablename not in self._LAZY_TABLES or redefine:'
p176
sI589
S'                self._LAZY_TABLES[tablename] = (tablename, fields, kwargs)'
p177
sI590
S'            table = None'
p178
sI591
S'        else:'
p179
sI592
S'            table = self.lazy_define_table(tablename, *fields, **kwargs)'
p180
sI593
S'        if tablename not in self.tables:'
p181
sI594
S'            self.tables.append(tablename)'
p182
sI595
S'        return table'
p183
sI596
S''
ssg85
S'(self=<DAL uri="sqlite://storage.sqlite">, tablename=\'auth_user\', *fields=(<pydal.objects.Field object>, <pydal.objects.Field object>, <pydal.objects.Field object>, <pydal.objects.Field object>, <pydal.objects.Field object>, <pydal.objects.Field object>, <pydal.objects.Field object>, <pydal.objects.Field object>), **kwargs={\'fake_migrate\': False, \'format\': \'%(username)s\', \'migrate\': True})'
p184
sg87
S'define_table'
p185
sa(dp186
g64
S'/Users/maulanakormi/Downloads/web2py/gluon/packages/dal/pydal/base.py'
p187
sg66
(dp188
S'polymodel'
p189
S'None'
p190
ssg72
I626
sg73
(dp191
I621
S'            try:'
p192
sI622
S'                GLOBAL_LOCKER.acquire()'
p193
sI623
S'                self._adapter.create_table('
p194
sI624
S'                    table, migrate=migrate,'
p195
sI625
S'                    fake_migrate=fake_migrate,'
p196
sI626
S'                    polymodel=polymodel)'
p197
sI627
S'            finally:'
p198
sI628
S'                GLOBAL_LOCKER.release()'
p199
sI629
S'        else:'
p200
sI630
S'            table._dbt = None'
p201
ssg85
S'(self=<DAL uri="sqlite://storage.sqlite">, tablename=\'auth_user\', *fields=(<pydal.objects.Field object>, <pydal.objects.Field object>, <pydal.objects.Field object>, <pydal.objects.Field object>, <pydal.objects.Field object>, <pydal.objects.Field object>, <pydal.objects.Field object>, <pydal.objects.Field object>), **kwargs={\'fake_migrate\': False, \'format\': \'%(username)s\', \'migrate\': True})'
p202
sg87
S'lazy_define_table'
p203
sa(dp204
g64
S'/Users/maulanakormi/Downloads/web2py/gluon/packages/dal/pydal/adapters/base.py'
p205
sg66
(dp206
S'self'
p207
S'<pydal.adapters.sqlite.SQLite object>'
p208
sS'args'
p209
S'(<Table auth_user (id, first_name, last_name, ema...ration_key, reset_password_key, registration_id)>,)'
p210
sS'self.migrator'
p211
S'<pydal.migrator.Migrator object>'
p212
sS'self.migrator.create_table'
p213
S'<bound method Migrator.create_table of <pydal.migrator.Migrator object>>'
p214
sS'kwargs'
p215
S"{'fake_migrate': False, 'migrate': True, 'polymodel': None}"
p216
ssg72
I798
sg73
(dp217
I800
S'    def _drop_table_cleanup(self, table):'
p218
sI801
S'        super(SQLAdapter, self)._drop_table_cleanup(table)'
p219
sI802
S'        if table._dbt:'
p220
sI793
S''
sI794
S'    def bulk_insert(self, table, items):'
p221
sI795
S'        return [self.insert(table, item) for item in items]'
p222
sI796
S''
sI797
S'    def create_table(self, *args, **kwargs):'
p223
sI798
S'        return self.migrator.create_table(*args, **kwargs)'
p224
sI799
S''
ssg85
S"(self=<pydal.adapters.sqlite.SQLite object>, *args=(<Table auth_user (id, first_name, last_name, ema...ration_key, reset_password_key, registration_id)>,), **kwargs={'fake_migrate': False, 'migrate': True, 'polymodel': None})"
p225
sg87
S'create_table'
p226
sa(dp227
g64
S'/Users/maulanakormi/Downloads/web2py/gluon/packages/dal/pydal/migrator.py'
p228
sg66
(dp229
S'global pickle'
p230
S"<module 'pickle' from '/System/Library/Framework...framework/Versions/2.7/lib/python2.7/pickle.pyc'>"
p231
sS'tfile'
p232
S'<pydal.contrib.portalocker.LockedFile object>'
p233
sS'sql_fields_old'
p234
g93
sS'pickle.load'
p235
S'<function load>'
p236
ssg72
I299
sg73
(dp237
I294
S'                else:'
p238
sI295
S"                    self.log('success!\\n', table)"
p239
sI296
S'        else:'
p240
sI297
S"            tfile = self.file_open(table._dbt, 'rb')"
p241
sI298
S'            try:'
p242
sI299
S'                sql_fields_old = pickle.load(tfile)'
p243
sI300
S'            except EOFError:'
p244
sI301
S'                self.file_close(tfile)'
p245
sI302
S"                raise RuntimeError('File %s appears corrupted' % table._dbt)"
p246
sI303
S'            self.file_close(tfile)'
p247
ssg85
S'(self=<pydal.migrator.Migrator object>, table=<Table auth_user (id, first_name, last_name, ema...ration_key, reset_password_key, registration_id)>, migrate=True, fake_migrate=False, polymodel=None)'
p248
sg87
g226
sa(dp249
g64
S'/System/Library/Frameworks/Python.framework/Versions/2.7/lib/python2.7/pickle.py'
p250
sg66
(dp251
S'global Unpickler'
p252
S'<class pickle.Unpickler>'
p253
sS').load'
p254
g93
sS'file'
p255
S'<pydal.contrib.portalocker.LockedFile object>'
p256
ssg72
I1384
sg73
(dp257
I1379
S'    file = StringIO()'
p258
sI1380
S'    Pickler(file, protocol).dump(obj)'
p259
sI1381
S'    return file.getvalue()'
p260
sI1382
S''
sI1383
S'def load(file):'
p261
sI1384
S'    return Unpickler(file).load()'
p262
sI1385
S''
sI1386
S'def loads(str):'
p263
sI1387
S'    file = StringIO(str)'
p264
sI1388
S'    return Unpickler(file).load()'
p265
ssg85
S'(file=<pydal.contrib.portalocker.LockedFile object>)'
p266
sg87
S'load'
p267
sa(dp268
g64
S'/System/Library/Frameworks/Python.framework/Versions/2.7/lib/python2.7/pickle.py'
p269
sg66
(dp270
S'self'
p271
S'<pickle.Unpickler instance>'
p272
sS'key'
p273
S"'\\x80'"
p274
sS'dispatch'
p275
S"{'': <function load_eof>, '(': <function load_mark>, ')': <function load_empty_tuple>, '.': <function load_stop>, '0': <function load_pop>, '1': <function load_pop_mark>, '2': <function load_dup>, 'F': <function load_float>, 'G': <function load_binfloat>, 'I': <function load_int>, ...}"
p276
ssg72
I864
sg73
(dp277
I864
S'                dispatch[key](self)'
p278
sI865
S'        except _Stop, stopinst:'
p279
sI866
S'            return stopinst.value'
p280
sI867
S''
sI868
S'    # Return largest index k such that self.stack[k] is self.mark.'
p281
sI859
S'        read = self.read'
p282
sI860
S'        dispatch = self.dispatch'
p283
sI861
S'        try:'
p284
sI862
S'            while 1:'
p285
sI863
S'                key = read(1)'
p286
ssg85
S'(self=<pickle.Unpickler instance>)'
p287
sg87
g267
sa(dp288
g64
S'/System/Library/Frameworks/Python.framework/Versions/2.7/lib/python2.7/pickle.py'
p289
sg66
(dp290
S'proto'
p291
S'3'
sS'builtinValueError'
p292
S"<type 'exceptions.ValueError'>"
p293
ssg72
I892
sg73
(dp294
I896
S'        pid = self.readline()[:-1]'
p295
sI887
S"    dispatch[''] = load_eof"
p296
sI888
S''
sI889
S'    def load_proto(self):'
p297
sI890
S'        proto = ord(self.read(1))'
p298
sI891
S'        if not 0 <= proto <= 2:'
p299
sI892
S'            raise ValueError, "unsupported pickle protocol: %d" % proto'
p300
sI893
S'    dispatch[PROTO] = load_proto'
p301
sI894
S''
sI895
S'    def load_persid(self):'
p302
ssg85
S'(self=<pickle.Unpickler instance>)'
p303
sg87
S'load_proto'
p304
sasS'pyver'
p305
S'Python 2.7.16: /usr/bin/python (prefix: /System/Library/Frameworks/Python.framework/Versions/2.7)'
p306
sS'session'
p307
g59
(S's\x1a\x00\x00\x00<div><table></table></div>'
tRp308
sS'etype'
p309
S"<type 'exceptions.ValueError'>"
p310
sS'date'
p311
S'Wed Mar  4 22:38:04 2020'
p312
sS'response'
p313
g59
(S's7\x16\x00\x00<div><table><tr><td style="font-weight:bold;vertical-align:top;">body</td><td style="vertical-align:top;">:</td><td><div>&lt;cStringIO.StringO object at 0x110c1e538&gt;</div></td></tr><tr><td style="font-weight:bold;vertical-align:top;">cookies</td><td style="vertical-align:top;">:</td><td><div><table><tr><td style="font-weight:bold;vertical-align:top;">session_id_bibi13</td><td style="vertical-align:top;">:</td><td><div>127.0.0.1-e17061f1-bc95-4e0a-9323-a44ccebcb311<table><tr><td style="font-weight:bold;vertical-align:top;">comment</td><td style="vertical-align:top;">:</td><td><div></div></td></tr><tr><td style="font-weight:bold;vertical-align:top;">domain</td><td style="vertical-align:top;">:</td><td><div></div></td></tr><tr><td style="font-weight:bold;vertical-align:top;">expires</td><td style="vertical-align:top;">:</td><td><div></div></td></tr><tr><td style="font-weight:bold;vertical-align:top;">httponly</td><td style="vertical-align:top;">:</td><td><div></div></td></tr><tr><td style="font-weight:bold;vertical-align:top;">max-age</td><td style="vertical-align:top;">:</td><td><div></div></td></tr><tr><td style="font-weight:bold;vertical-align:top;">path</td><td style="vertical-align:top;">:</td><td><div>/</div></td></tr><tr><td style="font-weight:bold;vertical-align:top;">secure</td><td style="vertical-align:top;">:</td><td><div></div></td></tr><tr><td style="font-weight:bold;vertical-align:top;">version</td><td style="vertical-align:top;">:</td><td><div></div></td></tr></table></div></td></tr></table></div></td></tr><tr><td style="font-weight:bold;vertical-align:top;">delimiters</td><td style="vertical-align:top;">:</td><td><div><table><tr><td><div>{{</div></td></tr><tr><td><div>}}</div></td></tr></table></div></td></tr><tr><td style="font-weight:bold;vertical-align:top;">files</td><td style="vertical-align:top;">:</td><td><div><table></table></div></td></tr><tr><td style="font-weight:bold;vertical-align:top;">flash</td><td style="vertical-align:top;">:</td><td><div></div></td></tr><tr><td style="font-weight:bold;vertical-align:top;">form_label_separator</td><td style="vertical-align:top;">:</td><td><div></div></td></tr><tr><td style="font-weight:bold;vertical-align:top;">formstyle</td><td style="vertical-align:top;">:</td><td><div>bootstrap4_inline</div></td></tr><tr><td style="font-weight:bold;vertical-align:top;">generic_patterns</td><td style="vertical-align:top;">:</td><td><div><table><tr><td><div>*</div></td></tr></table></div></td></tr><tr><td style="font-weight:bold;vertical-align:top;">headers</td><td style="vertical-align:top;">:</td><td><div><table><tr><td style="font-weight:bold;vertical-align:top;">X-Powered-By</td><td style="vertical-align:top;">:</td><td><div>web2py</div></td></tr></table></div></td></tr><tr><td style="font-weight:bold;vertical-align:top;">menu</td><td style="vertical-align:top;">:</td><td><div><table></table></div></td></tr><tr><td style="font-weight:bold;vertical-align:top;">meta</td><td style="vertical-align:top;">:</td><td><div><table></table></div></td></tr><tr><td style="font-weight:bold;vertical-align:top;">models_to_run</td><td style="vertical-align:top;">:</td><td><div><table><tr><td><div>^\\w+\\.py$</div></td></tr><tr><td><div>^default/\\w+\\.py$</div></td></tr><tr><td><div>^default/index/\\w+\\.py$</div></td></tr></table></div></td></tr><tr><td style="font-weight:bold;vertical-align:top;">postprocessing</td><td style="vertical-align:top;">:</td><td><div><table></table></div></td></tr><tr><td style="font-weight:bold;vertical-align:top;">session_client</td><td style="vertical-align:top;">:</td><td><div>127.0.0.1</div></td></tr><tr><td style="font-weight:bold;vertical-align:top;">session_cookie_compression_level</td><td style="vertical-align:top;">:</td><td><div>None</div></td></tr><tr><td style="font-weight:bold;vertical-align:top;">session_cookie_expires</td><td style="vertical-align:top;">:</td><td><div>None</div></td></tr><tr><td style="font-weight:bold;vertical-align:top;">session_data_name</td><td style="vertical-align:top;">:</td><td><div>session_data_bibi13</div></td></tr><tr><td style="font-weight:bold;vertical-align:top;">session_file</td><td style="vertical-align:top;">:</td><td><div>None</div></td></tr><tr><td style="font-weight:bold;vertical-align:top;">session_filename</td><td style="vertical-align:top;">:</td><td><div>/Users/maulanakormi/Downloads/web2py/applications/Bibi13/sessions/127.0.0.1-e17061f1-bc95-4e0a-9323-a44ccebcb311</div></td></tr><tr><td style="font-weight:bold;vertical-align:top;">session_hash</td><td style="vertical-align:top;">:</td><td><div>c0762cbf4baf7f9af97c051e7fcb8083</div></td></tr><tr><td style="font-weight:bold;vertical-align:top;">session_id</td><td style="vertical-align:top;">:</td><td><div>127.0.0.1-e17061f1-bc95-4e0a-9323-a44ccebcb311</div></td></tr><tr><td style="font-weight:bold;vertical-align:top;">session_id_name</td><td style="vertical-align:top;">:</td><td><div>session_id_bibi13</div></td></tr><tr><td style="font-weight:bold;vertical-align:top;">session_masterapp</td><td style="vertical-align:top;">:</td><td><div>Bibi13</div></td></tr><tr><td style="font-weight:bold;vertical-align:top;">session_new</td><td style="vertical-align:top;">:</td><td><div>True</div></td></tr><tr><td style="font-weight:bold;vertical-align:top;">session_storage_type</td><td style="vertical-align:top;">:</td><td><div>file</div></td></tr><tr><td style="font-weight:bold;vertical-align:top;">status</td><td style="vertical-align:top;">:</td><td><div>200</div></td></tr><tr><td style="font-weight:bold;vertical-align:top;">view</td><td style="vertical-align:top;">:</td><td><div>default/index.html</div></td></tr></table></div>'
tRp314
sS'locals'
p315
(dp316
S'self'
p317
S'<pickle.Unpickler instance>'
p318
sS'proto'
p319
S'3'
sssS'traceback'
p320
S'Traceback (most recent call last):\n  File "/Users/maulanakormi/Downloads/web2py/gluon/restricted.py", line 219, in restricted\n    exec(ccode, environment)\n  File "/Users/maulanakormi/Downloads/web2py/applications/Bibi13/models/db.py", line 94, in <module>\n    auth.define_tables(username=True, signature=False,migrate=True)\n  File "/Users/maulanakormi/Downloads/web2py/gluon/tools.py", line 2092, in define_tables\n    super(Auth, self).define_tables(username, signature, migrate, fake_migrate)._table_signature_list\n  File "/Users/maulanakormi/Downloads/web2py/gluon/authapi.py", line 320, in define_tables\n    format=\'%(username)s\'))\n  File "/Users/maulanakormi/Downloads/web2py/gluon/packages/dal/pydal/base.py", line 592, in define_table\n    table = self.lazy_define_table(tablename, *fields, **kwargs)\n  File "/Users/maulanakormi/Downloads/web2py/gluon/packages/dal/pydal/base.py", line 626, in lazy_define_table\n    polymodel=polymodel)\n  File "/Users/maulanakormi/Downloads/web2py/gluon/packages/dal/pydal/adapters/base.py", line 798, in create_table\n    return self.migrator.create_table(*args, **kwargs)\n  File "/Users/maulanakormi/Downloads/web2py/gluon/packages/dal/pydal/migrator.py", line 299, in create_table\n    sql_fields_old = pickle.load(tfile)\n  File "/System/Library/Frameworks/Python.framework/Versions/2.7/lib/python2.7/pickle.py", line 1384, in load\n    return Unpickler(file).load()\n  File "/System/Library/Frameworks/Python.framework/Versions/2.7/lib/python2.7/pickle.py", line 864, in load\n    dispatch[key](self)\n  File "/System/Library/Frameworks/Python.framework/Versions/2.7/lib/python2.7/pickle.py", line 892, in load_proto\n    raise ValueError, "unsupported pickle protocol: %d" % proto\nValueError: unsupported pickle protocol: 3\n'
p321
s.